target datalayout = "e-m:e-p270:32:32-p271:32:32-p272:64:64-i64:64-i128:128-f80:128-n8:16:32:64-S128"
target triple = "x86_64-unknown-linux-gnu"

%"class.std::recursive_mutex" = type { %"class.std::__recursive_mutex_base" }
%"class.std::__recursive_mutex_base" = type { %union.pthread_mutex_t }
%union.pthread_mutex_t = type { %struct.__pthread_mutex_s }
%struct.__pthread_mutex_s = type { i32, i32, i32, i32, i32, i16, i16, %struct.__pthread_internal_list }
%struct.__pthread_internal_list = type { ptr, ptr }
%"class.hermes::vm::GCBase::IDTracker" = type { %"class.std::recursive_mutex", i32, [4 x i8], %"class.llvh::DenseMap", %"class.llvh::DenseMap", %"class.llvh::DenseMap.8", %"class.llvh::DenseMap.11", %"class.llvh::DenseMap", %"class.llvh::DenseMap.14" }
%"class.llvh::DenseMap.8" = type <{ ptr, i32, i32, i32, [4 x i8] }>
%"class.llvh::DenseMap.11" = type <{ ptr, i32, i32, i32, [4 x i8] }>
%"class.llvh::DenseMap" = type <{ ptr, i32, i32, i32, [4 x i8] }>
%"class.llvh::DenseMap.14" = type <{ ptr, i32, i32, i32, [4 x i8] }>

@.str.57 = private unnamed_addr constant [22 x i8] c"Ran out of object IDs\00", align 1

; Function Attrs: mustprogress nounwind uwtable
define linkonce_odr noundef i32 @_ZNSt14numeric_limitsIjE3maxEv() #0 comdat align 2 {
entry:
  ret i32 -1
}

; Function Attrs: mustprogress nounwind uwtable
define hidden noundef i32 @_ZN6hermes2vm6GCBase9IDTracker12nextObjectIDEv(ptr noundef nonnull align 8 dereferenceable(192) %this) #0 align 2 {
entry:
  %this.addr = alloca ptr, align 8
  store ptr %this, ptr %this.addr, align 8
  %this1 = load ptr, ptr %this.addr, align 8
  %lastID_ = getelementptr inbounds %"class.hermes::vm::GCBase::IDTracker", ptr %this1, i32 0, i32 1
  %0 = load i32, ptr %lastID_, align 8
  %call = call noundef i32 @_ZNSt14numeric_limitsIjE3maxEv() #14
  %sub = sub i32 %call, 2
  %cmp = icmp uge i32 %0, %sub
  br i1 %cmp, label %if.then, label %if.end

if.then:                                          ; preds = %entry
  call void @_ZN6hermes12hermes_fatalEPKc(ptr noundef @.str.57) #15
  unreachable

if.end:                                           ; preds = %entry
  %lastID_2 = getelementptr inbounds %"class.hermes::vm::GCBase::IDTracker", ptr %this1, i32 0, i32 1
  %1 = load i32, ptr %lastID_2, align 8
  %add = add i32 %1, 2
  store i32 %add, ptr %lastID_2, align 8
  ret i32 %add
}

; Function Attrs: mustprogress nounwind uwtable
define hidden noundef i32 @_ZN6hermes2vm6GCBase9IDTracker12nextNumberIDEv(ptr noundef nonnull align 8 dereferenceable(192) %this) #0 align 2 {
entry:
  %this.addr = alloca ptr, align 8
  store ptr %this, ptr %this.addr, align 8
  %this1 = load ptr, ptr %this.addr, align 8
  %call = call noundef i32 @_ZN6hermes2vm6GCBase9IDTracker12nextObjectIDEv(ptr noundef nonnull align 8 dereferenceable(192) %this1)
  ret i32 %call
}