; Function Attrs: mustprogress nounwind uwtable
define hidden noundef i32 @_ZN6hermes2vm6GCBase9IDTracker12nextNumberIDEv(ptr nocapture noundef nonnull align 8 dereferenceable(192) %this) local_unnamed_addr #0 align 2 {
entry:
  %lastID_.i = getelementptr inbounds i8, ptr %this, i64 40
  %0 = load i32, ptr %lastID_.i, align 8
  %cmp.not.i = icmp ult i32 %0, -3
  br i1 %cmp.not.i, label %_ZN6hermes2vm6GCBase9IDTracker12nextObjectIDEv.exit, label %if.then.i

if.then.i:                                        ; preds = %entry
  tail call void @_ZN6hermes12hermes_fatalEPKc(ptr noundef nonnull @.str.57) #29
  unreachable

_ZN6hermes2vm6GCBase9IDTracker12nextObjectIDEv.exit: ; preds = %entry
  %add.i = add nuw i32 %0, 2
  store i32 %add.i, ptr %lastID_.i, align 8
  ret i32 %add.i
}